; Function Attrs: nounwind uwtable
define dso_local range(i32 0, 2) i32 @KeccakWidth1600_SpongeAbsorb(ptr noundef %0, ptr noundef %1, i64 noundef %2) local_unnamed_addr #0 {
  %4 = getelementptr inbounds nuw i8, ptr %0, i64 200
  %5 = load i32, ptr %4, align 8
  %.fr = freeze i32 %5
  %6 = lshr i32 %.fr, 3
  %7 = getelementptr inbounds nuw i8, ptr %0, i64 208
  %8 = load i32, ptr %7, align 8
  %.not = icmp eq i32 %8, 0
  br i1 %.not, label %.preheader, label %.loopexit

.preheader:                                       ; preds = %3
  %.not72 = icmp eq i64 %2, 0
  br i1 %.not72, label %.loopexit, label %.lr.ph70

.lr.ph70:                                         ; preds = %.preheader
  %9 = getelementptr inbounds nuw i8, ptr %0, i64 204
  %10 = zext nneg i32 %6 to i64
  %11 = and i32 %.fr, 56
  %12 = icmp eq i32 %11, 0
  %13 = lshr i32 %.fr, 6
  br i1 %12, label %.lr.ph70.split.us, label %.lr.ph70.split

.lr.ph70.split.us:                                ; preds = %.lr.ph70, %34
  %.05469.us = phi ptr [ %.2.us, %34 ], [ %1, %.lr.ph70 ]
  %.05768.us = phi i64 [ %.158.us, %34 ], [ 0, %.lr.ph70 ]
  %14 = load i32, ptr %9, align 4
  %15 = icmp ne i32 %14, 0
  %16 = add i64 %.05768.us, %10
  %.not62.us = icmp ult i64 %2, %16
  %or.cond = select i1 %15, i1 true, i1 %.not62.us
  %17 = sub i64 %2, %.05768.us
  br i1 %or.cond, label %22, label %18

18:                                               ; preds = %.lr.ph70.split.us
  %19 = tail call i64 @KeccakF1600_FastLoop_Absorb(ptr noundef nonnull %0, i32 noundef %13, ptr noundef %.05469.us, i64 noundef %17) #3
  %20 = add i64 %19, %.05768.us
  %21 = getelementptr inbounds nuw i8, ptr %.05469.us, i64 %19
  br label %34

22:                                               ; preds = %.lr.ph70.split.us
  %23 = trunc i64 %17 to i32
  %24 = add i32 %14, %23
  %25 = icmp ugt i32 %24, %6
  %26 = sub i32 %6, %14
  %spec.select.us = select i1 %25, i32 %26, i32 %23
  %27 = zext i32 %spec.select.us to i64
  %28 = add i64 %.05768.us, %27
  tail call void @KeccakP1600_AddBytes(ptr noundef nonnull %0, ptr noundef %.05469.us, i32 noundef %14, i32 noundef %spec.select.us) #3
  %29 = getelementptr inbounds nuw i8, ptr %.05469.us, i64 %27
  %30 = load i32, ptr %9, align 4
  %31 = add i32 %30, %spec.select.us
  store i32 %31, ptr %9, align 4
  %32 = icmp eq i32 %31, %6
  br i1 %32, label %33, label %34

33:                                               ; preds = %22
  tail call void @KeccakP1600_Permute_24rounds(ptr noundef nonnull %0) #3
  store i32 0, ptr %9, align 4
  br label %34

34:                                               ; preds = %33, %22, %18
  %.158.us = phi i64 [ %20, %18 ], [ %28, %33 ], [ %28, %22 ]
  %.2.us = phi ptr [ %21, %18 ], [ %29, %33 ], [ %29, %22 ]
  %35 = icmp ult i64 %.158.us, %2
  br i1 %35, label %.lr.ph70.split.us, label %.loopexit, !llvm.loop !12

.lr.ph70.split:                                   ; preds = %.lr.ph70, %56
  %.05469 = phi ptr [ %.2, %56 ], [ %1, %.lr.ph70 ]
  %.05768 = phi i64 [ %.158, %56 ], [ 0, %.lr.ph70 ]
  %36 = load i32, ptr %9, align 4
  %37 = icmp ne i32 %36, 0
  %38 = add i64 %.05768, %10
  %.not62 = icmp ult i64 %2, %38
  %or.cond71 = select i1 %37, i1 true, i1 %.not62
  %39 = sub i64 %2, %.05768
  br i1 %or.cond71, label %44, label %40

40:                                               ; preds = %.lr.ph70.split
  %.not6364 = icmp ult i64 %39, %10
  br i1 %.not6364, label %._crit_edge, label %.lr.ph

.lr.ph:                                           ; preds = %40, %.lr.ph
  %.166 = phi ptr [ %41, %.lr.ph ], [ %.05469, %40 ]
  %.05665 = phi i64 [ %42, %.lr.ph ], [ %39, %40 ]
  tail call void @KeccakP1600_AddBytes(ptr noundef %0, ptr noundef %.166, i32 noundef 0, i32 noundef %6) #3
  tail call void @KeccakP1600_Permute_24rounds(ptr noundef %0) #3
  %41 = getelementptr inbounds nuw i8, ptr %.166, i64 %10
  %42 = sub nuw i64 %.05665, %10
  %.not63 = icmp ult i64 %42, %10
  br i1 %.not63, label %._crit_edge, label %.lr.ph, !llvm.loop !13

._crit_edge:                                      ; preds = %.lr.ph, %40
  %.056.lcssa = phi i64 [ %39, %40 ], [ %42, %.lr.ph ]
  %.1.lcssa = phi ptr [ %.05469, %40 ], [ %41, %.lr.ph ]
  %43 = sub i64 %2, %.056.lcssa
  br label %56

44:                                               ; preds = %.lr.ph70.split
  %45 = trunc i64 %39 to i32
  %46 = add i32 %36, %45
  %47 = icmp ugt i32 %46, %6
  %48 = sub i32 %6, %36
  %spec.select = select i1 %47, i32 %48, i32 %45
  %49 = zext i32 %spec.select to i64
  %50 = add i64 %.05768, %49
  tail call void @KeccakP1600_AddBytes(ptr noundef nonnull %0, ptr noundef %.05469, i32 noundef %36, i32 noundef %spec.select) #3
  %51 = getelementptr inbounds nuw i8, ptr %.05469, i64 %49
  %52 = load i32, ptr %9, align 4
  %53 = add i32 %52, %spec.select
  store i32 %53, ptr %9, align 4
  %54 = icmp eq i32 %53, %6
  br i1 %54, label %55, label %56

55:                                               ; preds = %44
  tail call void @KeccakP1600_Permute_24rounds(ptr noundef nonnull %0) #3
  store i32 0, ptr %9, align 4
  br label %56

56:                                               ; preds = %44, %55, %._crit_edge
  %.158 = phi i64 [ %43, %._crit_edge ], [ %50, %55 ], [ %50, %44 ]
  %.2 = phi ptr [ %.1.lcssa, %._crit_edge ], [ %51, %55 ], [ %51, %44 ]
  %57 = icmp ult i64 %.158, %2
  br i1 %57, label %.lr.ph70.split, label %.loopexit, !llvm.loop !12

.loopexit:                                        ; preds = %56, %34, %.preheader, %3
  %.0 = phi i32 [ 1, %3 ], [ 0, %.preheader ], [ 0, %34 ], [ 0, %56 ]
  ret i32 %.0
}